; Function Attrs: nounwind uwtable
define dso_local i32 @get_event_trigger_oid(ptr noundef %0, i1 noundef zeroext %1) local_unnamed_addr #0 {
  %3 = ptrtoint ptr %0 to i64
  %4 = tail call i32 @GetSysCacheOid(i32 noundef 25, i16 noundef signext 1, i64 noundef %3, i64 noundef 0, i64 noundef 0, i64 noundef 0) #16
  %.not = icmp ne i32 %4, 0
  %brmerge = or i1 %1, %.not
  br i1 %brmerge, label %9, label %5

5:                                                ; preds = %2
  %6 = tail call zeroext i1 @errstart_cold(i32 noundef 21, ptr noundef null) #17
  tail call void @llvm.assume(i1 %6)
  %7 = tail call i32 @errcode(i32 noundef 67137668) #16
  %8 = tail call i32 (ptr, ...) @errmsg(ptr noundef nonnull @.str.15, ptr noundef %0) #16
  tail call void @errfinish(ptr noundef nonnull @.str.2, i32 noundef 584, ptr noundef nonnull @__func__.get_event_trigger_oid) #16
  unreachable

9:                                                ; preds = %2
  ret i32 %4
}